target datalayout = "e-m:e-p270:32:32-p271:32:32-p272:64:64-i64:64-i128:128-f80:128-n8:16:32:64-S128"
target triple = "x86_64-pc-linux-gnu"

@.str.34 = private unnamed_addr constant [7 x i8] c":%s-%s\00", align 1

; Function Attrs: nounwind uwtable
define internal i32 @cf_ssl_peer_key_add_path(ptr noundef %0, ptr noundef %1, ptr noundef %2) #0 {
  %4 = alloca i32, align 4
  %5 = alloca ptr, align 8
  %6 = alloca ptr, align 8
  %7 = alloca ptr, align 8
  %8 = alloca ptr, align 8
  %9 = alloca i32, align 4
  %10 = alloca i32, align 4
  store ptr %0, ptr %5, align 8, !tbaa !166
  store ptr %1, ptr %6, align 8, !tbaa !3
  store ptr %2, ptr %7, align 8, !tbaa !3
  %11 = load ptr, ptr %7, align 8, !tbaa !3
  %12 = icmp ne ptr %11, null
  br i1 %12, label %13, label %46

13:                                               ; preds = %3
  %14 = load ptr, ptr %7, align 8, !tbaa !3
  %15 = getelementptr inbounds i8, ptr %14, i64 0
  %16 = load i8, ptr %15, align 1, !tbaa !162
  %17 = sext i8 %16 to i32
  %18 = icmp ne i32 %17, 0
  br i1 %18, label %19, label %46

19:                                               ; preds = %13
  %20 = load ptr, ptr %7, align 8, !tbaa !3
  %21 = getelementptr inbounds i8, ptr %20, i64 0
  %22 = load i8, ptr %21, align 1, !tbaa !162
  %23 = sext i8 %22 to i32
  %24 = icmp ne i32 %23, 47
  br i1 %24, label %25, label %41

25:                                               ; preds = %19
  call void @llvm.lifetime.start.p0(i64 8, ptr %8) #6
  %26 = load ptr, ptr %7, align 8, !tbaa !3
  %27 = call ptr @realpath(ptr noundef %26, ptr noundef null) #6
  store ptr %27, ptr %8, align 8, !tbaa !3
  %28 = load ptr, ptr %8, align 8, !tbaa !3
  %29 = icmp ne ptr %28, null
  br i1 %29, label %30, label %37

30:                                               ; preds = %25
  call void @llvm.lifetime.start.p0(i64 4, ptr %9) #6
  %31 = load ptr, ptr %5, align 8, !tbaa !166
  %32 = load ptr, ptr %6, align 8, !tbaa !3
  %33 = load ptr, ptr %8, align 8, !tbaa !3
  %34 = call i32 (ptr, ptr, ...) @Curl_dyn_addf(ptr noundef %31, ptr noundef @.str.34, ptr noundef %32, ptr noundef %33)
  store i32 %34, ptr %9, align 4, !tbaa !10
  %35 = load ptr, ptr %8, align 8, !tbaa !3
  call void @free(ptr noundef %35) #6
  %36 = load i32, ptr %9, align 4, !tbaa !10
  store i32 %36, ptr %4, align 4
  store i32 1, ptr %10, align 4
  call void @llvm.lifetime.end.p0(i64 4, ptr %9) #6
  br label %38

37:                                               ; preds = %25
  store i32 0, ptr %10, align 4
  br label %38

38:                                               ; preds = %37, %30
  call void @llvm.lifetime.end.p0(i64 8, ptr %8) #6
  %39 = load i32, ptr %10, align 4
  switch i32 %39, label %49 [
    i32 0, label %40
    i32 1, label %47
  ]

40:                                               ; preds = %38
  br label %41

41:                                               ; preds = %40, %19
  %42 = load ptr, ptr %5, align 8, !tbaa !166
  %43 = load ptr, ptr %6, align 8, !tbaa !3
  %44 = load ptr, ptr %7, align 8, !tbaa !3
  %45 = call i32 (ptr, ptr, ...) @Curl_dyn_addf(ptr noundef %42, ptr noundef @.str.34, ptr noundef %43, ptr noundef %44)
  store i32 %45, ptr %4, align 4
  br label %47

46:                                               ; preds = %13, %3
  store i32 0, ptr %4, align 4
  br label %47

47:                                               ; preds = %46, %41, %38
  %48 = load i32, ptr %4, align 4
  ret i32 %48

49:                                               ; preds = %38
  unreachable
}