; Function Attrs: nounwind uwtable
define internal fastcc i32 @cf_ssl_peer_key_add_path(ptr noundef nonnull %0, ptr noundef %1, ptr noundef %2) unnamed_addr #0 {
  %.not = icmp eq ptr %2, null
  br i1 %.not, label %11, label %4

4:                                                ; preds = %3
  %5 = load i8, ptr %2, align 1, !tbaa !147
  switch i8 %5, label %6 [
    i8 0, label %11
    i8 47, label %.thread
  ]

6:                                                ; preds = %4
  %7 = tail call ptr @realpath(ptr noundef nonnull %2, ptr noundef null) #9
  %.not20.not = icmp eq ptr %7, null
  br i1 %.not20.not, label %.thread, label %8

8:                                                ; preds = %6
  %9 = tail call i32 (ptr, ptr, ...) @Curl_dyn_addf(ptr noundef nonnull %0, ptr noundef nonnull @.str.34, ptr noundef %1, ptr noundef nonnull %7) #9
  tail call void @free(ptr noundef nonnull %7) #9
  br label %11

.thread:                                          ; preds = %6, %4
  %10 = tail call i32 (ptr, ptr, ...) @Curl_dyn_addf(ptr noundef nonnull %0, ptr noundef nonnull @.str.34, ptr noundef %1, ptr noundef nonnull %2) #9
  br label %11

11:                                               ; preds = %8, %3, %4, %.thread
  %.1 = phi i32 [ %9, %8 ], [ %10, %.thread ], [ 0, %4 ], [ 0, %3 ]
  ret i32 %.1
}